; Function Attrs: mustprogress uwtable
define hidden i32 @hb_ot_var_get_axis_count(ptr noundef %0) local_unnamed_addr #0 {
  %2 = getelementptr inbounds i8, ptr %0, i64 224
  %3 = tail call noundef ptr @_ZNK16hb_lazy_loader_tIN2OT4fvarE22hb_table_lazy_loader_tIS1_Lj18ELb1EE9hb_face_tLj18E9hb_blob_tE10get_storedEv(ptr noundef nonnull align 8 dereferenceable(8) %2)
  %4 = getelementptr inbounds i8, ptr %3, i64 16
  %5 = load ptr, ptr %4, align 8
  %6 = getelementptr inbounds i8, ptr %3, i64 24
  %7 = load i32, ptr %6, align 8
  %8 = icmp ult i32 %7, 16
  %spec.select.i.i.i.i.i = select i1 %8, ptr @_hb_NullPool, ptr %5
  %9 = getelementptr inbounds i8, ptr %spec.select.i.i.i.i.i, i64 8
  %10 = load i8, ptr %9, align 1
  %11 = zext i8 %10 to i32
  %12 = shl nuw nsw i32 %11, 8
  %13 = getelementptr inbounds i8, ptr %spec.select.i.i.i.i.i, i64 9
  %14 = load i8, ptr %13, align 1
  %15 = zext i8 %14 to i32
  %16 = or disjoint i32 %12, %15
  ret i32 %16
}